target datalayout = "e-m:e-p270:32:32-p271:32:32-p272:64:64-i64:64-i128:128-f80:128-n8:16:32:64-S128"
target triple = "x86_64-pc-linux-gnu"

@hf_s7comm_piservice_unknown1 = internal global i32 0, align 4
@hf_s7comm_piservice_servicename = internal global i32 0, align 4
@hf_s7comm_data_plccontrol_part2_len = internal global i32 0, align 4

; Function Attrs: null_pointer_is_valid sspstrong uwtable
define internal i32 @s7comm_decode_plc_controls_param_hex29(ptr noundef %0, ptr noundef %1, i32 noundef %2) #0 {
  %4 = alloca ptr, align 8
  %5 = alloca ptr, align 8
  %6 = alloca i32, align 4
  %7 = alloca i8, align 1
  store ptr %0, ptr %4, align 8
  store ptr %1, ptr %5, align 8
  store i32 %2, ptr %6, align 4
  call void @llvm.lifetime.start.p0(i64 1, ptr %7) #8
  %8 = load i32, ptr %6, align 4
  %9 = add i32 %8, 1
  store i32 %9, ptr %6, align 4
  %10 = load ptr, ptr %5, align 8
  %11 = load i32, ptr @hf_s7comm_piservice_unknown1, align 4
  %12 = load ptr, ptr %4, align 8
  %13 = load i32, ptr %6, align 4
  %14 = call ptr @proto_tree_add_item(ptr noundef %10, i32 noundef %11, ptr noundef %12, i32 noundef %13, i32 noundef 5, i32 noundef 0)
  %15 = load i32, ptr %6, align 4
  %16 = add i32 %15, 5
  store i32 %16, ptr %6, align 4
  %17 = load ptr, ptr %4, align 8
  %18 = load i32, ptr %6, align 4
  %19 = call zeroext i8 @tvb_get_uint8(ptr noundef %17, i32 noundef %18)
  store i8 %19, ptr %7, align 1
  %20 = load ptr, ptr %5, align 8
  %21 = load i32, ptr @hf_s7comm_data_plccontrol_part2_len, align 4
  %22 = load ptr, ptr %4, align 8
  %23 = load i32, ptr %6, align 4
  %24 = load i8, ptr %7, align 1
  %25 = zext i8 %24 to i32
  %26 = call ptr @proto_tree_add_uint(ptr noundef %20, i32 noundef %21, ptr noundef %22, i32 noundef %23, i32 noundef 1, i32 noundef %25)
  %27 = load i32, ptr %6, align 4
  %28 = add i32 %27, 1
  store i32 %28, ptr %6, align 4
  %29 = load ptr, ptr %5, align 8
  %30 = load i32, ptr @hf_s7comm_piservice_servicename, align 4
  %31 = load ptr, ptr %4, align 8
  %32 = load i32, ptr %6, align 4
  %33 = load i8, ptr %7, align 1
  %34 = zext i8 %33 to i32
  %35 = call ptr @proto_tree_add_item(ptr noundef %29, i32 noundef %30, ptr noundef %31, i32 noundef %32, i32 noundef %34, i32 noundef 0)
  %36 = load i8, ptr %7, align 1
  %37 = zext i8 %36 to i32
  %38 = load i32, ptr %6, align 4
  %39 = add i32 %38, %37
  store i32 %39, ptr %6, align 4
  %40 = load i32, ptr %6, align 4
  call void @llvm.lifetime.end.p0(i64 1, ptr %7) #8
  ret i32 %40
}