; Function Attrs: null_pointer_is_valid sspstrong uwtable
define internal fastcc void @s7comm_decode_plc_controls_param_hex29(ptr noundef %0, ptr noundef %1, i32 noundef range(i32 10, 13) %2) unnamed_addr #0 {
  %4 = add nuw nsw i32 %2, 1
  %5 = load i32, ptr @hf_s7comm_piservice_unknown1, align 4
  %6 = tail call ptr @proto_tree_add_item(ptr noundef %1, i32 noundef %5, ptr noundef %0, i32 noundef %4, i32 noundef 5, i32 noundef 0)
  %7 = add nuw nsw i32 %2, 6
  %8 = tail call zeroext i8 @tvb_get_uint8(ptr noundef %0, i32 noundef %7)
  %9 = load i32, ptr @hf_s7comm_data_plccontrol_part2_len, align 4
  %10 = zext i8 %8 to i32
  %11 = tail call ptr @proto_tree_add_uint(ptr noundef %1, i32 noundef %9, ptr noundef %0, i32 noundef %7, i32 noundef 1, i32 noundef %10)
  %12 = add nuw nsw i32 %2, 7
  %13 = load i32, ptr @hf_s7comm_piservice_servicename, align 4
  %14 = tail call ptr @proto_tree_add_item(ptr noundef %1, i32 noundef %13, ptr noundef %0, i32 noundef %12, i32 noundef %10, i32 noundef 0)
  ret void
}